; Function Attrs: nofree norecurse nosync nounwind memory(argmem: readwrite) uwtable
define dso_local void @bit_and(ptr noundef captures(none) %0, ptr noundef readonly captures(none) %1) #2 {
  %3 = getelementptr inbounds nuw i8, ptr %0, i64 8
  %4 = load i64, ptr %3, align 8
  %5 = getelementptr inbounds nuw i8, ptr %1, i64 8
  %6 = load i64, ptr %5, align 8
  %. = tail call i64 @llvm.smin.i64(i64 %4, i64 %6)
  %.not22 = icmp ult i64 %., 64
  br i1 %.not22, label %._crit_edge, label %.lr.ph

.lr.ph:                                           ; preds = %2, %.lr.ph
  %7 = phi i64 [ %15, %.lr.ph ], [ 64, %2 ]
  %.023 = phi i64 [ %7, %.lr.ph ], [ 0, %2 ]
  %8 = ashr exact i64 %.023, 6
  %9 = add nsw i64 %8, 2
  %10 = getelementptr inbounds i64, ptr %1, i64 %9
  %11 = load i64, ptr %10, align 8
  %12 = getelementptr inbounds i64, ptr %0, i64 %9
  %13 = load i64, ptr %12, align 8
  %14 = and i64 %13, %11
  store i64 %14, ptr %12, align 8
  %15 = add i64 %7, 64
  %.not = icmp ugt i64 %15, %.
  br i1 %.not, label %._crit_edge, label %.lr.ph, !llvm.loop !17

._crit_edge:                                      ; preds = %.lr.ph, %2
  %.0.lcssa = phi i64 [ 0, %2 ], [ %7, %.lr.ph ]
  %16 = icmp slt i64 %.0.lcssa, %.
  br i1 %16, label %17, label %27

17:                                               ; preds = %._crit_edge
  %18 = and i64 %., 63
  %notmask = shl nsw i64 -1, %18
  %19 = ashr exact i64 %.0.lcssa, 6
  %20 = add nsw i64 %19, 2
  %21 = getelementptr inbounds i64, ptr %1, i64 %20
  %22 = load i64, ptr %21, align 8
  %23 = or i64 %22, %notmask
  %24 = getelementptr inbounds i64, ptr %0, i64 %20
  %25 = load i64, ptr %24, align 8
  %26 = and i64 %25, %23
  store i64 %26, ptr %24, align 8
  br label %27

27:                                               ; preds = %17, %._crit_edge
  ret void
}